target datalayout = "e-m:e-p270:32:32-p271:32:32-p272:64:64-i64:64-i128:128-f80:128-n8:16:32:64-S128"
target triple = "x86_64-pc-linux-gnu"

%"class.std::__cxx11::basic_string" = type { %"struct.std::__cxx11::basic_string<char>::_Alloc_hider", i64, %union.anon }
%"struct.std::__cxx11::basic_string<char>::_Alloc_hider" = type { ptr }
%union.anon = type { i64, [8 x i8] }
%"class.open_spiel::battleship::ShipPlacement" = type { %"class.open_spiel::battleship::CellAndDirection", %"struct.open_spiel::battleship::Ship" }
%"class.open_spiel::battleship::CellAndDirection" = type { i32, %"struct.open_spiel::battleship::Cell" }
%"struct.open_spiel::battleship::Cell" = type { i32, i32 }
%"struct.open_spiel::battleship::Ship" = type { i32, i32, double }

@.str = private unnamed_addr constant [146 x i8] c"generated/home/dtcxzyw/WorkSpace/Projects/compilers/llvm-opt-benchmark/bench/openspiel/open_spiel/open_spiel/games/battleship/battleship_types.cc\00", align 1
@.str.1 = private unnamed_addr constant [2 x i8] c":\00", align 1
@.str.2 = private unnamed_addr constant [2 x i8] c" \00", align 1
@.str.5 = private unnamed_addr constant [4 x i8] c" = \00", align 1
@.str.15 = private unnamed_addr constant [17 x i8] c"ship.length >= 1\00", align 1
@.str.16 = private unnamed_addr constant [13 x i8] c"\0Aship.length\00", align 1
@.str.17 = private unnamed_addr constant [7 x i8] c", 1 = \00", align 1

; Function Attrs: mustprogress uwtable
define void @_ZN10open_spiel10battleship13ShipPlacementC2ENS0_16CellAndDirection9DirectionERKNS0_4ShipERKNS0_4CellE(ptr noundef nonnull align 8 dereferenceable(32) %0, i32 noundef %1, ptr noundef nonnull align 8 dereferenceable(16) %2, ptr noundef nonnull align 4 dereferenceable(8) %3) unnamed_addr #4 align 2 personality ptr @__gxx_personality_v0 {
  %5 = alloca ptr, align 8
  %6 = alloca i32, align 4
  %7 = alloca ptr, align 8
  %8 = alloca ptr, align 8
  %9 = alloca i32, align 4
  %10 = alloca i32, align 4
  %11 = alloca %"class.std::__cxx11::basic_string", align 8
  %12 = alloca i32, align 4
  %13 = alloca ptr, align 8
  %14 = alloca i32, align 4
  store ptr %0, ptr %5, align 8
  store i32 %1, ptr %6, align 4
  store ptr %2, ptr %7, align 8
  store ptr %3, ptr %8, align 8
  %15 = load ptr, ptr %5, align 8
  %16 = load i32, ptr %6, align 4
  %17 = load ptr, ptr %8, align 8
  call void @_ZN10open_spiel10battleship16CellAndDirectionC2ENS1_9DirectionERKNS0_4CellE(ptr noundef nonnull align 4 dereferenceable(12) %15, i32 noundef %16, ptr noundef nonnull align 4 dereferenceable(8) %17)
  %18 = getelementptr inbounds nuw %"class.open_spiel::battleship::ShipPlacement", ptr %15, i32 0, i32 1
  %19 = load ptr, ptr %7, align 8
  call void @llvm.memcpy.p0.p0.i64(ptr align 8 %18, ptr align 8 %19, i64 16, i1 false)
  br label %20

20:                                               ; preds = %4
  %21 = load ptr, ptr %7, align 8
  %22 = getelementptr inbounds nuw %"struct.open_spiel::battleship::Ship", ptr %21, i32 0, i32 1
  %23 = load i32, ptr %22, align 4
  store i32 %23, ptr %9, align 4
  store i32 1, ptr %10, align 4
  %24 = load i32, ptr %9, align 4
  %25 = load i32, ptr %10, align 4
  %26 = icmp sge i32 %24, %25
  br i1 %26, label %33, label %27

27:                                               ; preds = %20
  store i32 118, ptr %12, align 4
  call void @_ZN10open_spiel8internal11SpielStrCatIJRA146_KcRA2_S2_iS6_RA17_S2_RA13_S2_RA4_S2_RiRA7_S2_SD_EEENSt7__cxx1112basic_stringIcSt11char_traitsIcESaIcEEEDpOT_(ptr dead_on_unwind writable sret(%"class.std::__cxx11::basic_string") align 8 %11, ptr noundef nonnull align 1 dereferenceable(146) @.str, ptr noundef nonnull align 1 dereferenceable(2) @.str.1, ptr noundef nonnull align 4 dereferenceable(4) %12, ptr noundef nonnull align 1 dereferenceable(2) @.str.2, ptr noundef nonnull align 1 dereferenceable(17) @.str.15, ptr noundef nonnull align 1 dereferenceable(13) @.str.16, ptr noundef nonnull align 1 dereferenceable(4) @.str.5, ptr noundef nonnull align 4 dereferenceable(4) %9, ptr noundef nonnull align 1 dereferenceable(7) @.str.17, ptr noundef nonnull align 4 dereferenceable(4) %10)
  invoke void @_ZN10open_spiel15SpielFatalErrorERKNSt7__cxx1112basic_stringIcSt11char_traitsIcESaIcEEE(ptr noundef nonnull align 8 dereferenceable(32) %11) #12
          to label %28 unwind label %29

28:                                               ; preds = %27
  unreachable

29:                                               ; preds = %27
  %30 = landingpad { ptr, i32 }
          cleanup
  %31 = extractvalue { ptr, i32 } %30, 0
  store ptr %31, ptr %13, align 8
  %32 = extractvalue { ptr, i32 } %30, 1
  store i32 %32, ptr %14, align 4
  call void @_ZNSt7__cxx1112basic_stringIcSt11char_traitsIcESaIcEED1Ev(ptr noundef nonnull align 8 dereferenceable(32) %11) #3
  br label %35

33:                                               ; preds = %20
  br label %34

34:                                               ; preds = %33
  ret void

35:                                               ; preds = %29
  %36 = load ptr, ptr %13, align 8
  %37 = load i32, ptr %14, align 4
  %38 = insertvalue { ptr, i32 } poison, ptr %36, 0
  %39 = insertvalue { ptr, i32 } %38, i32 %37, 1
  resume { ptr, i32 } %39
}