; Function Attrs: mustprogress uwtable
define void @_ZN10open_spiel10battleship13ShipPlacementC2ENS0_16CellAndDirection9DirectionERKNS0_4ShipERKNS0_4CellE(ptr nocapture noundef nonnull writeonly align 8 dereferenceable(32) %0, i32 noundef %1, ptr nocapture noundef nonnull readonly align 8 dereferenceable(16) %2, ptr nocapture noundef nonnull readonly align 4 dereferenceable(8) %3) unnamed_addr #3 align 2 personality ptr @__gxx_personality_v0 {
  %5 = alloca i32, align 4
  %6 = alloca i32, align 4
  %7 = alloca %"class.std::__cxx11::basic_string", align 8
  %8 = alloca i32, align 4
  tail call void @_ZN10open_spiel10battleship16CellAndDirectionC2ENS1_9DirectionERKNS0_4CellE(ptr noundef nonnull align 4 dereferenceable(12) %0, i32 noundef %1, ptr noundef nonnull align 4 dereferenceable(8) %3)
  %9 = getelementptr inbounds nuw i8, ptr %0, i64 16
  tail call void @llvm.memcpy.p0.p0.i64(ptr noundef nonnull align 8 dereferenceable(16) %9, ptr noundef nonnull align 8 dereferenceable(16) %2, i64 16, i1 false)
  %10 = getelementptr inbounds nuw i8, ptr %2, i64 4
  %11 = load i32, ptr %10, align 4
  store i32 %11, ptr %5, align 4
  store i32 1, ptr %6, align 4
  %12 = icmp sgt i32 %11, 0
  br i1 %12, label %17, label %13

13:                                               ; preds = %4
  store i32 118, ptr %8, align 4
  call void @_ZN10open_spiel8internal11SpielStrCatIJRA146_KcRA2_S2_iS6_RA17_S2_RA13_S2_RA4_S2_RiRA7_S2_SD_EEENSt7__cxx1112basic_stringIcSt11char_traitsIcESaIcEEEDpOT_(ptr dead_on_unwind nonnull writable sret(%"class.std::__cxx11::basic_string") align 8 %7, ptr noundef nonnull align 1 dereferenceable(146) @.str, ptr noundef nonnull align 1 dereferenceable(2) @.str.1, ptr noundef nonnull align 4 dereferenceable(4) %8, ptr noundef nonnull align 1 dereferenceable(2) @.str.2, ptr noundef nonnull align 1 dereferenceable(17) @.str.15, ptr noundef nonnull align 1 dereferenceable(13) @.str.16, ptr noundef nonnull align 1 dereferenceable(4) @.str.5, ptr noundef nonnull align 4 dereferenceable(4) %5, ptr noundef nonnull align 1 dereferenceable(7) @.str.17, ptr noundef nonnull align 4 dereferenceable(4) %6)
  invoke void @_ZN10open_spiel15SpielFatalErrorERKNSt7__cxx1112basic_stringIcSt11char_traitsIcESaIcEEE(ptr noundef nonnull align 8 dereferenceable(32) %7) #11
          to label %14 unwind label %15

14:                                               ; preds = %13
  unreachable

15:                                               ; preds = %13
  %16 = landingpad { ptr, i32 }
          cleanup
  call void @_ZNSt7__cxx1112basic_stringIcSt11char_traitsIcESaIcEED1Ev(ptr noundef nonnull align 8 dereferenceable(32) %7) #14
  resume { ptr, i32 } %16

17:                                               ; preds = %4
  ret void
}